target datalayout = "e-m:e-p270:32:32-p271:32:32-p272:64:64-i64:64-i128:128-f80:128-n8:16:32:64-S128"
target triple = "x86_64-pc-linux-gnu"

@_ZTVN6asmjit9_abi_1_106TargetE = unnamed_addr constant { [4 x ptr] } { [4 x ptr] [ptr null, ptr @_ZTIN6asmjit9_abi_1_106TargetE, ptr @_ZN6asmjit9_abi_1_106TargetD1Ev, ptr @_ZN6asmjit9_abi_1_106TargetD0Ev] }, align 8
@_ZTVN10__cxxabiv117__class_type_infoE = external global [0 x ptr]
@_ZTSN6asmjit9_abi_1_106TargetE = constant [27 x i8] c"N6asmjit9_abi_1_106TargetE\00", align 1
@_ZTIN6asmjit9_abi_1_106TargetE = constant { ptr, ptr } { ptr getelementptr inbounds (ptr, ptr @_ZTVN10__cxxabiv117__class_type_infoE, i64 2), ptr @_ZTSN6asmjit9_abi_1_106TargetE }, align 8

@_ZN6asmjit9_abi_1_106TargetC1Ev = unnamed_addr alias void (ptr), ptr @_ZN6asmjit9_abi_1_106TargetC2Ev
@_ZN6asmjit9_abi_1_106TargetD1Ev = unnamed_addr alias void (ptr), ptr @_ZN6asmjit9_abi_1_106TargetD2Ev

; Function Attrs: mustprogress nofree norecurse nosync nounwind willreturn memory(argmem: write) uwtable
define dso_local void @_ZN6asmjit9_abi_1_106TargetC2Ev(ptr nocapture noundef nonnull writeonly align 8 dereferenceable(48) %0) unnamed_addr #0 align 2 {
  store ptr getelementptr inbounds inrange(-16, 16) ({ [4 x ptr] }, ptr @_ZTVN6asmjit9_abi_1_106TargetE, i64 0, i32 0, i64 2), ptr %0, align 8, !tbaa !3
  %2 = getelementptr inbounds i8, ptr %0, i64 8
  tail call void @llvm.memset.p0.i64(ptr noundef nonnull align 8 dereferenceable(40) %2, i8 0, i64 40, i1 false)
  ret void
}

; Function Attrs: mustprogress nofree norecurse nosync nounwind willreturn memory(none) uwtable
define dso_local void @_ZN6asmjit9_abi_1_106TargetD2Ev(ptr nocapture nonnull readnone align 8 %0) unnamed_addr #1 align 2 {
  ret void
}

; Function Attrs: mustprogress nounwind uwtable
define dso_local void @_ZN6asmjit9_abi_1_106TargetD0Ev(ptr noundef nonnull align 8 dereferenceable(48) %0) unnamed_addr #2 align 2 {
  tail call void @_ZN6asmjit9_abi_1_106TargetD1Ev(ptr noundef nonnull align 8 dereferenceable(48) %0) #5
  tail call void @_ZdlPv(ptr noundef nonnull %0) #6
  ret void
}

; Function Attrs: nobuiltin nounwind
declare void @_ZdlPv(ptr noundef) local_unnamed_addr #3

; Function Attrs: nocallback nofree nounwind willreturn memory(argmem: write)
declare void @llvm.memset.p0.i64(ptr nocapture writeonly, i8, i64, i1 immarg) #4


!llvm.module.flags = !{!0, !1, !2}

!0 = !{i32 1, !"wchar_size", i32 4}
!1 = !{i32 8, !"PIC Level", i32 2}
!2 = !{i32 7, !"uwtable", i32 2}
!3 = !{!4, !4, i64 0}
!4 = !{!"vtable pointer", !5, i64 0}
!5 = !{!"Simple C++ TBAA"}
